target datalayout = "e-m:e-p270:32:32-p271:32:32-p272:64:64-i64:64-i128:128-f80:128-n8:16:32:64-S128"
target triple = "x86_64-pc-linux-gnu"

%class.sls_engine = type { ptr, %"class.bv::sls_stats", %class.mpz_manager, %class.powers, %class.mpz, %class.mpz, %class.mpz, %class.bv_util, %class.sls_tracker, %class.sls_evaluator, %class.ptr_vector.25, i32, i32, i32, i32, i32, i32, i32, i32, i32, i32, i32, i32, i32, i32 }
%"class.bv::sls_stats" = type { i32, i32, i32, i32, i32, i32, i32, i32, %class.stopwatch }
%class.stopwatch = type <{ %"class.std::chrono::time_point", %"class.std::chrono::duration", i8, [7 x i8] }>
%"class.std::chrono::time_point" = type { %"class.std::chrono::duration" }
%"class.std::chrono::duration" = type { i64 }
%class.mpz_manager = type { %class.small_object_allocator, %"class.std::recursive_mutex", [4 x i8], i32, %class.mpz, %class.mpz }
%class.small_object_allocator = type { [32 x ptr], [32 x ptr], i64 }
%"class.std::recursive_mutex" = type { %"class.std::__recursive_mutex_base" }
%"class.std::__recursive_mutex_base" = type { %union.pthread_mutex_t }
%union.pthread_mutex_t = type { %struct.__pthread_mutex_s }
%struct.__pthread_mutex_s = type { i32, i32, i32, i32, i32, i16, i16, %struct.__pthread_internal_list }
%struct.__pthread_internal_list = type { ptr, ptr }
%class.powers = type { %class.u_map, ptr }
%class.u_map = type { %class.map }
%class.map = type { %class.table2map }
%class.table2map = type { %class.core_hashtable }
%class.core_hashtable = type <{ ptr, i32, i32, i32, [4 x i8] }>
%class.mpz = type { i32, i8, ptr }
%class.bv_util = type { %class.bv_recognizers, ptr, ptr }
%class.bv_recognizers = type { i32 }
%class.sls_tracker = type { ptr, ptr, ptr, ptr, %class.random_gen, i32, i32, %class.mpz, %class.mpz, %class.mpz, %class.obj_hashtable, %class.obj_map, %class.obj_map.4, %class.obj_map.9, %class.ptr_vector, %class.ptr_vector, %class.obj_map.14, i32, i32, i32, double, i32, double, double, i32, double, i32, [4 x i8], %class.obj_map.19, ptr, i32, [4 x i8], %class.obj_map.19, double, %class.obj_hashtable }
%class.random_gen = type { i32 }
%class.obj_map = type { %class.core_hashtable.2 }
%class.core_hashtable.2 = type <{ ptr, i32, i32, i32, [4 x i8] }>
%class.obj_map.4 = type { %class.core_hashtable.5 }
%class.core_hashtable.5 = type <{ ptr, i32, i32, i32, [4 x i8] }>
%class.obj_map.9 = type { %class.core_hashtable.10 }
%class.core_hashtable.10 = type <{ ptr, i32, i32, i32, [4 x i8] }>
%class.ptr_vector = type { %class.vector }
%class.vector = type { ptr }
%class.obj_map.14 = type { %class.core_hashtable.15 }
%class.core_hashtable.15 = type <{ ptr, i32, i32, i32, [4 x i8] }>
%class.obj_map.19 = type { %class.core_hashtable.20 }
%class.core_hashtable.20 = type <{ ptr, i32, i32, i32, [4 x i8] }>
%class.obj_hashtable = type { %class.core_hashtable.base.1, [4 x i8] }
%class.core_hashtable.base.1 = type <{ ptr, i32, i32, i32 }>
%class.sls_evaluator = type { ptr, ptr, i32, i32, ptr, ptr, %class.mpz, %class.mpz, %class.mpz, ptr, %class.ref_buffer, %class.vector.24, %class.vector.24 }
%class.ref_buffer = type { %class.ref_buffer_core }
%class.ref_buffer_core = type { %class.ref_manager_wrapper, %class.ptr_buffer }
%class.ref_manager_wrapper = type { ptr }
%class.ptr_buffer = type { %class.buffer }
%class.buffer = type { ptr, i32, i32, [128 x i8] }
%class.vector.24 = type { ptr }
%class.ptr_vector.25 = type { %class.vector.26 }
%class.vector.26 = type { ptr }

; Function Attrs: mustprogress nounwind uwtable
define hidden noundef i32 @_ZN10sls_engine13check_restartEj(ptr noundef nonnull align 8 dereferenceable(1496) %0, i32 noundef %1) #5 align 2 {
  %3 = alloca i32, align 4
  %4 = alloca ptr, align 8
  %5 = alloca i32, align 4
  store ptr %0, ptr %4, align 8, !tbaa !3
  store i32 %1, ptr %5, align 4, !tbaa !33
  %6 = load ptr, ptr %4, align 8
  %7 = load i32, ptr %5, align 4, !tbaa !33
  %8 = getelementptr inbounds nuw %class.sls_engine, ptr %6, i32 0, i32 20
  %9 = load i32, ptr %8, align 4, !tbaa !122
  %10 = icmp ugt i32 %7, %9
  br i1 %10, label %11, label %36

11:                                               ; preds = %2
  %12 = getelementptr inbounds nuw %class.sls_engine, ptr %6, i32 0, i32 1
  %13 = getelementptr inbounds nuw %"class.bv::sls_stats", ptr %12, i32 0, i32 0
  %14 = load i32, ptr %13, align 8, !tbaa !264
  %15 = and i32 %14, 1
  %16 = icmp ne i32 %15, 0
  br i1 %16, label %17, label %23

17:                                               ; preds = %11
  %18 = getelementptr inbounds nuw %class.sls_engine, ptr %6, i32 0, i32 19
  %19 = load i32, ptr %18, align 8, !tbaa !121
  %20 = getelementptr inbounds nuw %class.sls_engine, ptr %6, i32 0, i32 20
  %21 = load i32, ptr %20, align 4, !tbaa !122
  %22 = add i32 %21, %19
  store i32 %22, ptr %20, align 4, !tbaa !122
  br label %35

23:                                               ; preds = %11
  %24 = getelementptr inbounds nuw %class.sls_engine, ptr %6, i32 0, i32 1
  %25 = getelementptr inbounds nuw %"class.bv::sls_stats", ptr %24, i32 0, i32 0
  %26 = load i32, ptr %25, align 8, !tbaa !264
  %27 = lshr i32 %26, 1
  %28 = shl i32 2, %27
  %29 = getelementptr inbounds nuw %class.sls_engine, ptr %6, i32 0, i32 19
  %30 = load i32, ptr %29, align 8, !tbaa !121
  %31 = mul i32 %28, %30
  %32 = getelementptr inbounds nuw %class.sls_engine, ptr %6, i32 0, i32 20
  %33 = load i32, ptr %32, align 4, !tbaa !122
  %34 = add i32 %33, %31
  store i32 %34, ptr %32, align 4, !tbaa !122
  br label %35

35:                                               ; preds = %23, %17
  store i32 0, ptr %3, align 4
  br label %37

36:                                               ; preds = %2
  store i32 1, ptr %3, align 4
  br label %37

37:                                               ; preds = %36, %35
  %38 = load i32, ptr %3, align 4
  ret i32 %38
}