; Function Attrs: mustprogress nofree norecurse nosync nounwind willreturn memory(argmem: readwrite) uwtable
define hidden noundef range(i32 0, 2) i32 @_ZN10sls_engine13check_restartEj(ptr noundef nonnull align 8 captures(none) dereferenceable(1496) %0, i32 noundef %1) local_unnamed_addr #10 align 2 {
  %3 = getelementptr inbounds nuw i8, ptr %0, i64 1476
  %4 = load i32, ptr %3, align 4, !tbaa !191
  %5 = icmp ugt i32 %1, %4
  br i1 %5, label %6, label %20

6:                                                ; preds = %2
  %7 = getelementptr inbounds nuw i8, ptr %0, i64 8
  %8 = load i32, ptr %7, align 8, !tbaa !342
  %9 = and i32 %8, 1
  %.not = icmp eq i32 %9, 0
  br i1 %.not, label %13, label %10

10:                                               ; preds = %6
  %11 = getelementptr inbounds nuw i8, ptr %0, i64 1472
  %12 = load i32, ptr %11, align 8, !tbaa !190
  br label %19

13:                                               ; preds = %6
  %14 = lshr exact i32 %8, 1
  %15 = shl i32 2, %14
  %16 = getelementptr inbounds nuw i8, ptr %0, i64 1472
  %17 = load i32, ptr %16, align 8, !tbaa !190
  %18 = mul i32 %17, %15
  br label %19

19:                                               ; preds = %13, %10
  %.pn = phi i32 [ %18, %13 ], [ %12, %10 ]
  %storemerge = add i32 %.pn, %4
  store i32 %storemerge, ptr %3, align 4, !tbaa !191
  br label %20

20:                                               ; preds = %2, %19
  %.0 = phi i32 [ 0, %19 ], [ 1, %2 ]
  ret i32 %.0
}